target datalayout = "e-m:e-p270:32:32-p271:32:32-p272:64:64-i64:64-i128:128-f80:128-n8:16:32:64-S128"
target triple = "x86_64-pc-linux-gnu"

%"class.std::function" = type { %"class.std::_Function_base", ptr }
%"class.std::_Function_base" = type { %"union.std::_Any_data", ptr }
%"union.std::_Any_data" = type { %"union.std::_Nocopy_types" }
%"union.std::_Nocopy_types" = type { { i64, i64 } }
%class.anon.61 = type { ptr, ptr, ptr, ptr, ptr }
%"class.flatbuffers::Table" = type { [1 x i8] }

; Function Attrs: mustprogress nounwind uwtable
define linkonce_odr dso_local noundef i32 @_ZN11flatbuffers12EndianScalarIiEET_S1_(i32 noundef %0) #8 comdat {
  %2 = alloca i32, align 4
  store i32 %0, ptr %2, align 4, !tbaa !38
  %3 = load i32, ptr %2, align 4, !tbaa !38
  ret i32 %3
}

; Function Attrs: mustprogress nounwind uwtable
define linkonce_odr dso_local noundef ptr @_ZNSt9_Any_data9_M_accessEv(ptr noundef nonnull align 8 dereferenceable(16) %0) #8 comdat align 2 {
  %2 = alloca ptr, align 8
  store ptr %0, ptr %2, align 8, !tbaa !590
  %3 = load ptr, ptr %2, align 8
  %4 = getelementptr inbounds [16 x i8], ptr %3, i64 0, i64 0
  ret ptr %4
}

; Function Attrs: mustprogress nounwind uwtable
define linkonce_odr dso_local noundef zeroext i16 @_ZN11flatbuffers12EndianScalarItEET_S1_(i16 noundef zeroext %0) #8 comdat {
  %2 = alloca i16, align 2
  store i16 %0, ptr %2, align 2, !tbaa !68
  %3 = load i16, ptr %2, align 2, !tbaa !68
  ret i16 %3
}

; Function Attrs: mustprogress uwtable
define linkonce_odr dso_local noundef i32 @_ZN11flatbuffers10ReadScalarIiEET_PKv(ptr noundef %0) #4 comdat {
  %2 = alloca ptr, align 8
  store ptr %0, ptr %2, align 8, !tbaa !155
  %3 = load ptr, ptr %2, align 8, !tbaa !155
  %4 = load i32, ptr %3, align 4, !tbaa !38
  %5 = call noundef i32 @_ZN11flatbuffers12EndianScalarIiEET_S1_(i32 noundef %4)
  ret i32 %5
}

; Function Attrs: mustprogress nounwind uwtable
define internal noundef nonnull align 8 dereferenceable(8) ptr @"_ZNSt9_Any_data9_M_accessIPZN11flatbuffers15BinaryAnnotator11BuildStructEmRSt6vectorINS1_12BinaryRegionESaIS4_EENSt7__cxx1112basic_stringIcSt11char_traitsIcESaIcEEEPKN10reflection6ObjectEE3$_0EERT_v"(ptr noundef nonnull align 8 dereferenceable(16) %0) #8 align 2 {
  %2 = alloca ptr, align 8
  store ptr %0, ptr %2, align 8, !tbaa !590
  %3 = load ptr, ptr %2, align 8
  %4 = call noundef ptr @_ZNSt9_Any_data9_M_accessEv(ptr noundef nonnull align 8 dereferenceable(16) %3) #3
  ret ptr %4
}

; Function Attrs: mustprogress nounwind uwtable
define linkonce_odr dso_local noundef zeroext i8 @_ZN11flatbuffers12EndianScalarIhEET_S1_(i8 noundef zeroext %0) #8 comdat {
  %2 = alloca i8, align 1
  store i8 %0, ptr %2, align 1, !tbaa !80
  %3 = load i8, ptr %2, align 1, !tbaa !80
  ret i8 %3
}

; Function Attrs: mustprogress uwtable
define linkonce_odr dso_local noundef zeroext i16 @_ZN11flatbuffers10ReadScalarItEET_PKv(ptr noundef %0) #4 comdat {
  %2 = alloca ptr, align 8
  store ptr %0, ptr %2, align 8, !tbaa !155
  %3 = load ptr, ptr %2, align 8, !tbaa !155
  %4 = load i16, ptr %3, align 2, !tbaa !68
  %5 = call noundef zeroext i16 @_ZN11flatbuffers12EndianScalarItEET_S1_(i16 noundef zeroext %4)
  ret i16 %5
}

; Function Attrs: mustprogress uwtable
define linkonce_odr dso_local noundef ptr @_ZNK11flatbuffers5Table9GetVTableEv(ptr noundef nonnull align 1 dereferenceable(1) %0) #4 comdat align 2 {
  %2 = alloca ptr, align 8
  store ptr %0, ptr %2, align 8, !tbaa !231
  %3 = load ptr, ptr %2, align 8
  %4 = getelementptr inbounds nuw %"class.flatbuffers::Table", ptr %3, i32 0, i32 0
  %5 = getelementptr inbounds [1 x i8], ptr %4, i64 0, i64 0
  %6 = getelementptr inbounds nuw %"class.flatbuffers::Table", ptr %3, i32 0, i32 0
  %7 = getelementptr inbounds [1 x i8], ptr %6, i64 0, i64 0
  %8 = call noundef i32 @_ZN11flatbuffers10ReadScalarIiEET_PKv(ptr noundef %7)
  %9 = sext i32 %8 to i64
  %10 = sub i64 0, %9
  %11 = getelementptr inbounds i8, ptr %5, i64 %10
  ret ptr %11
}

; Function Attrs: mustprogress uwtable
define internal void @"_ZNSt14_Function_base13_Base_managerIZN11flatbuffers15BinaryAnnotator11BuildStructEmRSt6vectorINS1_12BinaryRegionESaIS4_EENSt7__cxx1112basic_stringIcSt11char_traitsIcESaIcEEEPKN10reflection6ObjectEE3$_0E9_M_createISI_EEvRSt9_Any_dataOT_St17integral_constantIbLb0EE"(ptr noundef nonnull align 8 dereferenceable(16) %0, ptr noundef nonnull align 8 dereferenceable(40) %1) #4 align 2 {
  %3 = alloca ptr, align 8
  %4 = alloca ptr, align 8
  store ptr %0, ptr %3, align 8, !tbaa !590
  store ptr %1, ptr %4, align 8, !tbaa !155
  %5 = call noalias noundef nonnull ptr @_Znwm(i64 noundef 40) #25
  %6 = load ptr, ptr %4, align 8, !tbaa !155
  call void @llvm.memcpy.p0.p0.i64(ptr align 16 %5, ptr align 8 %6, i64 40, i1 false), !tbaa.struct !743
  %7 = load ptr, ptr %3, align 8, !tbaa !590
  %8 = call noundef nonnull align 8 dereferenceable(8) ptr @"_ZNSt9_Any_data9_M_accessIPZN11flatbuffers15BinaryAnnotator11BuildStructEmRSt6vectorINS1_12BinaryRegionESaIS4_EENSt7__cxx1112basic_stringIcSt11char_traitsIcESaIcEEEPKN10reflection6ObjectEE3$_0EERT_v"(ptr noundef nonnull align 8 dereferenceable(16) %7) #3
  store ptr %5, ptr %8, align 8, !tbaa !155
  ret void
}

; Function Attrs: mustprogress uwtable
define linkonce_odr dso_local noundef zeroext i8 @_ZN11flatbuffers10ReadScalarIhEET_PKv(ptr noundef %0) #4 comdat {
  %2 = alloca ptr, align 8
  store ptr %0, ptr %2, align 8, !tbaa !155
  %3 = load ptr, ptr %2, align 8, !tbaa !155
  %4 = load i8, ptr %3, align 1, !tbaa !80
  %5 = call noundef zeroext i8 @_ZN11flatbuffers12EndianScalarIhEET_S1_(i8 noundef zeroext %4)
  ret i8 %5
}

; Function Attrs: mustprogress uwtable
define linkonce_odr dso_local noundef zeroext i16 @_ZNK11flatbuffers5Table22GetOptionalFieldOffsetEt(ptr noundef nonnull align 1 dereferenceable(1) %0, i16 noundef zeroext %1) #4 comdat align 2 {
  %3 = alloca ptr, align 8
  %4 = alloca i16, align 2
  %5 = alloca ptr, align 8
  %6 = alloca i16, align 2
  store ptr %0, ptr %3, align 8, !tbaa !231
  store i16 %1, ptr %4, align 2, !tbaa !68
  %7 = load ptr, ptr %3, align 8
  call void @llvm.lifetime.start.p0(i64 8, ptr %5) #3
  %8 = call noundef ptr @_ZNK11flatbuffers5Table9GetVTableEv(ptr noundef nonnull align 1 dereferenceable(1) %7)
  store ptr %8, ptr %5, align 8, !tbaa !37
  call void @llvm.lifetime.start.p0(i64 2, ptr %6) #3
  %9 = load ptr, ptr %5, align 8, !tbaa !37
  %10 = call noundef zeroext i16 @_ZN11flatbuffers10ReadScalarItEET_PKv(ptr noundef %9)
  store i16 %10, ptr %6, align 2, !tbaa !68
  %11 = load i16, ptr %4, align 2, !tbaa !68
  %12 = zext i16 %11 to i32
  %13 = load i16, ptr %6, align 2, !tbaa !68
  %14 = zext i16 %13 to i32
  %15 = icmp slt i32 %12, %14
  br i1 %15, label %16, label %24

16:                                               ; preds = %2
  %17 = load ptr, ptr %5, align 8, !tbaa !37
  %18 = load i16, ptr %4, align 2, !tbaa !68
  %19 = zext i16 %18 to i32
  %20 = sext i32 %19 to i64
  %21 = getelementptr inbounds i8, ptr %17, i64 %20
  %22 = call noundef zeroext i16 @_ZN11flatbuffers10ReadScalarItEET_PKv(ptr noundef %21)
  %23 = zext i16 %22 to i32
  br label %25

24:                                               ; preds = %2
  br label %25

25:                                               ; preds = %24, %16
  %26 = phi i32 [ %23, %16 ], [ 0, %24 ]
  %27 = trunc i32 %26 to i16
  call void @llvm.lifetime.end.p0(i64 2, ptr %6) #3
  call void @llvm.lifetime.end.p0(i64 8, ptr %5) #3
  ret i16 %27
}

; Function Attrs: mustprogress uwtable
define internal void @"_ZNSt14_Function_base13_Base_managerIZN11flatbuffers15BinaryAnnotator11BuildStructEmRSt6vectorINS1_12BinaryRegionESaIS4_EENSt7__cxx1112basic_stringIcSt11char_traitsIcESaIcEEEPKN10reflection6ObjectEE3$_0E15_M_init_functorISI_EEvRSt9_Any_dataOT_"(ptr noundef nonnull align 8 dereferenceable(16) %0, ptr noundef nonnull align 8 dereferenceable(40) %1) #4 align 2 {
  %3 = alloca ptr, align 8
  %4 = alloca ptr, align 8
  store ptr %0, ptr %3, align 8, !tbaa !590
  store ptr %1, ptr %4, align 8, !tbaa !155
  %5 = load ptr, ptr %3, align 8, !tbaa !590
  %6 = load ptr, ptr %4, align 8, !tbaa !155
  call void @"_ZNSt14_Function_base13_Base_managerIZN11flatbuffers15BinaryAnnotator11BuildStructEmRSt6vectorINS1_12BinaryRegionESaIS4_EENSt7__cxx1112basic_stringIcSt11char_traitsIcESaIcEEEPKN10reflection6ObjectEE3$_0E9_M_createISI_EEvRSt9_Any_dataOT_St17integral_constantIbLb0EE"(ptr noundef nonnull align 8 dereferenceable(16) %5, ptr noundef nonnull align 8 dereferenceable(40) %6)
  ret void
}

; Function Attrs: mustprogress nounwind uwtable
define internal noundef zeroext i1 @"_ZNSt14_Function_base13_Base_managerIZN11flatbuffers15BinaryAnnotator11BuildStructEmRSt6vectorINS1_12BinaryRegionESaIS4_EENSt7__cxx1112basic_stringIcSt11char_traitsIcESaIcEEEPKN10reflection6ObjectEE3$_0E21_M_not_empty_functionISI_EEbRKT_"(ptr noundef nonnull align 8 dereferenceable(40) %0) #8 align 2 {
  %2 = alloca ptr, align 8
  store ptr %0, ptr %2, align 8, !tbaa !155
  ret i1 true
}

; Function Attrs: mustprogress nounwind uwtable
define linkonce_odr dso_local void @_ZNSt14_Function_baseC2Ev(ptr noundef nonnull align 8 dereferenceable(24) %0) unnamed_addr #8 comdat align 2 {
  %2 = alloca ptr, align 8
  store ptr %0, ptr %2, align 8, !tbaa !160
  %3 = load ptr, ptr %2, align 8
  %4 = getelementptr inbounds nuw %"class.std::_Function_base", ptr %3, i32 0, i32 0
  store ptr null, ptr %4, align 8, !tbaa !80
  %5 = getelementptr inbounds nuw %"class.std::_Function_base", ptr %3, i32 0, i32 1
  store ptr null, ptr %5, align 8, !tbaa !159
  ret void
}

; Function Attrs: mustprogress uwtable
define linkonce_odr dso_local noundef zeroext i8 @_ZNK11flatbuffers5Table8GetFieldIhEET_tS2_(ptr noundef nonnull align 1 dereferenceable(1) %0, i16 noundef zeroext %1, i8 noundef zeroext %2) #4 comdat align 2 {
  %4 = alloca ptr, align 8
  %5 = alloca i16, align 2
  %6 = alloca i8, align 1
  %7 = alloca i16, align 2
  store ptr %0, ptr %4, align 8, !tbaa !231
  store i16 %1, ptr %5, align 2, !tbaa !68
  store i8 %2, ptr %6, align 1, !tbaa !80
  %8 = load ptr, ptr %4, align 8
  call void @llvm.lifetime.start.p0(i64 2, ptr %7) #3
  %9 = load i16, ptr %5, align 2, !tbaa !68
  %10 = call noundef zeroext i16 @_ZNK11flatbuffers5Table22GetOptionalFieldOffsetEt(ptr noundef nonnull align 1 dereferenceable(1) %8, i16 noundef zeroext %9)
  store i16 %10, ptr %7, align 2, !tbaa !68
  %11 = load i16, ptr %7, align 2, !tbaa !68
  %12 = icmp ne i16 %11, 0
  br i1 %12, label %13, label %21

13:                                               ; preds = %3
  %14 = getelementptr inbounds nuw %"class.flatbuffers::Table", ptr %8, i32 0, i32 0
  %15 = getelementptr inbounds [1 x i8], ptr %14, i64 0, i64 0
  %16 = load i16, ptr %7, align 2, !tbaa !68
  %17 = zext i16 %16 to i32
  %18 = sext i32 %17 to i64
  %19 = getelementptr inbounds i8, ptr %15, i64 %18
  %20 = call noundef zeroext i8 @_ZN11flatbuffers10ReadScalarIhEET_PKv(ptr noundef %19)
  br label %23

21:                                               ; preds = %3
  %22 = load i8, ptr %6, align 1, !tbaa !80
  br label %23

23:                                               ; preds = %21, %13
  %24 = phi i8 [ %20, %13 ], [ %22, %21 ]
  call void @llvm.lifetime.end.p0(i64 2, ptr %7) #3
  ret i8 %24
}

; Function Attrs: mustprogress nounwind uwtable
define linkonce_odr dso_local void @_ZNSt14_Function_baseD2Ev(ptr noundef nonnull align 8 dereferenceable(24) %0) unnamed_addr #8 comdat align 2 personality ptr @__gxx_personality_v0 {
  %2 = alloca ptr, align 8
  store ptr %0, ptr %2, align 8, !tbaa !160
  %3 = load ptr, ptr %2, align 8
  %4 = getelementptr inbounds nuw %"class.std::_Function_base", ptr %3, i32 0, i32 1
  %5 = load ptr, ptr %4, align 8, !tbaa !159
  %6 = icmp ne ptr %5, null
  br i1 %6, label %7, label %14

7:                                                ; preds = %1
  %8 = getelementptr inbounds nuw %"class.std::_Function_base", ptr %3, i32 0, i32 1
  %9 = load ptr, ptr %8, align 8, !tbaa !159
  %10 = getelementptr inbounds nuw %"class.std::_Function_base", ptr %3, i32 0, i32 0
  %11 = getelementptr inbounds nuw %"class.std::_Function_base", ptr %3, i32 0, i32 0
  %12 = invoke noundef zeroext i1 %9(ptr noundef nonnull align 8 dereferenceable(16) %10, ptr noundef nonnull align 8 dereferenceable(16) %11, i32 noundef 3)
          to label %13 unwind label %15

13:                                               ; preds = %7
  br label %14

14:                                               ; preds = %13, %1
  ret void

15:                                               ; preds = %7
  %16 = landingpad { ptr, i32 }
          catch ptr null
  %17 = extractvalue { ptr, i32 } %16, 0
  call void @__clang_call_terminate(ptr %17) #23
  unreachable
}

; Function Attrs: mustprogress uwtable
define internal void @"_ZNSt8functionIFvPKN10reflection5FieldEEEC2IZN11flatbuffers15BinaryAnnotator11BuildStructEmRSt6vectorINS7_12BinaryRegionESaISA_EENSt7__cxx1112basic_stringIcSt11char_traitsIcESaIcEEEPKNS0_6ObjectEE3$_0vEEOT_"(ptr noundef nonnull align 8 dereferenceable(32) %0, ptr noundef nonnull align 8 dereferenceable(40) %1) unnamed_addr #4 align 2 personality ptr @__gxx_personality_v0 {
  %3 = alloca ptr, align 8
  %4 = alloca ptr, align 8
  %5 = alloca ptr, align 8
  %6 = alloca i32, align 4
  store ptr %0, ptr %3, align 8, !tbaa !153
  store ptr %1, ptr %4, align 8, !tbaa !155
  %7 = load ptr, ptr %3, align 8
  %8 = getelementptr inbounds i8, ptr %7, i64 0
  call void @llvm.memset.p0.i64(ptr align 8 %8, i8 0, i64 24, i1 false)
  call void @_ZNSt14_Function_baseC2Ev(ptr noundef nonnull align 8 dereferenceable(24) %7) #3
  %9 = getelementptr inbounds nuw %"class.std::function", ptr %7, i32 0, i32 1
  store ptr null, ptr %9, align 8, !tbaa !156
  %10 = load ptr, ptr %4, align 8, !tbaa !155
  %11 = call noundef zeroext i1 @"_ZNSt14_Function_base13_Base_managerIZN11flatbuffers15BinaryAnnotator11BuildStructEmRSt6vectorINS1_12BinaryRegionESaIS4_EENSt7__cxx1112basic_stringIcSt11char_traitsIcESaIcEEEPKN10reflection6ObjectEE3$_0E21_M_not_empty_functionISI_EEbRKT_"(ptr noundef nonnull align 8 dereferenceable(40) %10) #3
  br i1 %11, label %12, label %22

12:                                               ; preds = %2
  %13 = getelementptr inbounds nuw %"class.std::_Function_base", ptr %7, i32 0, i32 0
  %14 = load ptr, ptr %4, align 8, !tbaa !155
  invoke void @"_ZNSt14_Function_base13_Base_managerIZN11flatbuffers15BinaryAnnotator11BuildStructEmRSt6vectorINS1_12BinaryRegionESaIS4_EENSt7__cxx1112basic_stringIcSt11char_traitsIcESaIcEEEPKN10reflection6ObjectEE3$_0E15_M_init_functorISI_EEvRSt9_Any_dataOT_"(ptr noundef nonnull align 8 dereferenceable(16) %13, ptr noundef nonnull align 8 dereferenceable(40) %14)
          to label %15 unwind label %18

15:                                               ; preds = %12
  %16 = getelementptr inbounds nuw %"class.std::function", ptr %7, i32 0, i32 1
  store ptr @"_ZNSt17_Function_handlerIFvPKN10reflection5FieldEEZN11flatbuffers15BinaryAnnotator11BuildStructEmRSt6vectorINS5_12BinaryRegionESaIS8_EENSt7__cxx1112basic_stringIcSt11char_traitsIcESaIcEEEPKNS0_6ObjectEE3$_0E9_M_invokeERKSt9_Any_dataOS3_", ptr %16, align 8, !tbaa !156
  %17 = getelementptr inbounds nuw %"class.std::_Function_base", ptr %7, i32 0, i32 1
  store ptr @"_ZNSt17_Function_handlerIFvPKN10reflection5FieldEEZN11flatbuffers15BinaryAnnotator11BuildStructEmRSt6vectorINS5_12BinaryRegionESaIS8_EENSt7__cxx1112basic_stringIcSt11char_traitsIcESaIcEEEPKNS0_6ObjectEE3$_0E10_M_managerERSt9_Any_dataRKSN_St18_Manager_operation", ptr %17, align 8, !tbaa !159
  br label %22

18:                                               ; preds = %12
  %19 = landingpad { ptr, i32 }
          cleanup
  %20 = extractvalue { ptr, i32 } %19, 0
  store ptr %20, ptr %5, align 8
  %21 = extractvalue { ptr, i32 } %19, 1
  store i32 %21, ptr %6, align 4
  call void @_ZNSt14_Function_baseD2Ev(ptr noundef nonnull align 8 dereferenceable(24) %7) #3
  br label %23

22:                                               ; preds = %15, %2
  ret void

23:                                               ; preds = %18
  %24 = load ptr, ptr %5, align 8
  %25 = load i32, ptr %6, align 4
  %26 = insertvalue { ptr, i32 } poison, ptr %24, 0
  %27 = insertvalue { ptr, i32 } %26, i32 %25, 1
  resume { ptr, i32 } %27
}

; Function Attrs: mustprogress uwtable
define linkonce_odr dso_local noundef zeroext i1 @_ZNK10reflection6Object9is_structEv(ptr noundef nonnull align 1 dereferenceable(1) %0) #4 comdat align 2 {
  %2 = alloca ptr, align 8
  store ptr %0, ptr %2, align 8, !tbaa !56
  %3 = load ptr, ptr %2, align 8
  %4 = call noundef zeroext i8 @_ZNK11flatbuffers5Table8GetFieldIhEET_tS2_(ptr noundef nonnull align 1 dereferenceable(1) %3, i16 noundef zeroext 8, i8 noundef zeroext 0)
  %5 = zext i8 %4 to i32
  %6 = icmp ne i32 %5, 0
  ret i1 %6
}

; Function Attrs: mustprogress uwtable
define dso_local noundef i64 @_ZN11flatbuffers15BinaryAnnotator11BuildStructEmRSt6vectorINS_12BinaryRegionESaIS2_EENSt7__cxx1112basic_stringIcSt11char_traitsIcESaIcEEEPKN10reflection6ObjectE(ptr noundef nonnull align 8 dereferenceable(176) %0, i64 noundef %1, ptr noundef nonnull align 8 dereferenceable(24) %2, ptr noundef %3, ptr noundef %4) #4 align 2 personality ptr @__gxx_personality_v0 {
  %6 = alloca i64, align 8
  %7 = alloca ptr, align 8
  %8 = alloca i64, align 8
  %9 = alloca ptr, align 8
  %10 = alloca ptr, align 8
  %11 = alloca ptr, align 8
  %12 = alloca i64, align 8
  %13 = alloca %"class.std::function", align 8
  %14 = alloca %class.anon.61, align 8
  %15 = alloca ptr, align 8
  %16 = alloca i32, align 4
  store ptr %0, ptr %7, align 8, !tbaa !4
  store i64 %1, ptr %8, align 8, !tbaa !34
  store ptr %2, ptr %9, align 8, !tbaa !105
  store ptr %3, ptr %10, align 8, !tbaa !119
  store ptr %4, ptr %11, align 8, !tbaa !56
  %17 = load ptr, ptr %7, align 8
  %18 = load ptr, ptr %11, align 8, !tbaa !56
  %19 = call noundef zeroext i1 @_ZNK10reflection6Object9is_structEv(ptr noundef nonnull align 1 dereferenceable(1) %18)
  br i1 %19, label %22, label %20

20:                                               ; preds = %5
  %21 = load i64, ptr %8, align 8, !tbaa !34
  store i64 %21, ptr %6, align 8
  br label %37

22:                                               ; preds = %5
  call void @llvm.lifetime.start.p0(i64 8, ptr %12) #3
  %23 = load i64, ptr %8, align 8, !tbaa !34
  store i64 %23, ptr %12, align 8, !tbaa !34
  %24 = load ptr, ptr %11, align 8, !tbaa !56
  call void @llvm.lifetime.start.p0(i64 40, ptr %14) #3
  %25 = getelementptr inbounds nuw %class.anon.61, ptr %14, i32 0, i32 0
  store ptr %3, ptr %25, align 8, !tbaa !119
  %26 = getelementptr inbounds nuw %class.anon.61, ptr %14, i32 0, i32 1
  store ptr %11, ptr %26, align 8, !tbaa !188
  %27 = getelementptr inbounds nuw %class.anon.61, ptr %14, i32 0, i32 2
  store ptr %17, ptr %27, align 8, !tbaa !190
  %28 = getelementptr inbounds nuw %class.anon.61, ptr %14, i32 0, i32 3
  store ptr %12, ptr %28, align 8, !tbaa !134
  %29 = getelementptr inbounds nuw %class.anon.61, ptr %14, i32 0, i32 4
  %30 = load ptr, ptr %9, align 8, !tbaa !105
  store ptr %30, ptr %29, align 8, !tbaa !105
  call void @"_ZNSt8functionIFvPKN10reflection5FieldEEEC2IZN11flatbuffers15BinaryAnnotator11BuildStructEmRSt6vectorINS7_12BinaryRegionESaISA_EENSt7__cxx1112basic_stringIcSt11char_traitsIcESaIcEEEPKNS0_6ObjectEE3$_0vEEOT_"(ptr noundef nonnull align 8 dereferenceable(32) %13, ptr noundef nonnull align 8 dereferenceable(40) %14)
  invoke void @_ZN11flatbuffers12ForAllFieldsEPKN10reflection6ObjectEbSt8functionIFvPKNS0_5FieldEEE(ptr noundef %24, i1 noundef zeroext false, ptr noundef %13)
          to label %31 unwind label %33

31:                                               ; preds = %22
  call void @_ZNSt14_Function_baseD2Ev(ptr noundef nonnull align 8 dereferenceable(32) %13) #3
  call void @llvm.lifetime.end.p0(i64 40, ptr %14) #3
  %32 = load i64, ptr %12, align 8, !tbaa !34
  store i64 %32, ptr %6, align 8
  call void @llvm.lifetime.end.p0(i64 8, ptr %12) #3
  br label %37

33:                                               ; preds = %22
  %34 = landingpad { ptr, i32 }
          cleanup
  %35 = extractvalue { ptr, i32 } %34, 0
  store ptr %35, ptr %15, align 8
  %36 = extractvalue { ptr, i32 } %34, 1
  store i32 %36, ptr %16, align 4
  call void @_ZNSt14_Function_baseD2Ev(ptr noundef nonnull align 8 dereferenceable(32) %13) #3
  call void @llvm.lifetime.end.p0(i64 40, ptr %14) #3
  call void @llvm.lifetime.end.p0(i64 8, ptr %12) #3
  br label %39

37:                                               ; preds = %31, %20
  %38 = load i64, ptr %6, align 8
  ret i64 %38

39:                                               ; preds = %33
  %40 = load ptr, ptr %15, align 8
  %41 = load i32, ptr %16, align 4
  %42 = insertvalue { ptr, i32 } poison, ptr %40, 0
  %43 = insertvalue { ptr, i32 } %42, i32 %41, 1
  resume { ptr, i32 } %43
}