; Function Attrs: mustprogress uwtable
define dso_local noundef i64 @_ZN11flatbuffers15BinaryAnnotator11BuildStructEmRSt6vectorINS_12BinaryRegionESaIS2_EENSt7__cxx1112basic_stringIcSt11char_traitsIcESaIcEEEPKN10reflection6ObjectE(ptr noundef nonnull align 8 dereferenceable(176) %0, i64 noundef %1, ptr noundef nonnull align 8 dereferenceable(24) %2, ptr noundef %3, ptr noundef %4) local_unnamed_addr #3 align 2 personality ptr @__gxx_personality_v0 {
  %6 = alloca ptr, align 8
  %7 = alloca i64, align 8
  %8 = alloca %"class.std::function", align 8
  store ptr %4, ptr %6, align 8, !tbaa !347
  %9 = load i32, ptr %4, align 4, !tbaa !34
  %10 = sext i32 %9 to i64
  %11 = sub nsw i64 0, %10
  %12 = getelementptr inbounds i8, ptr %4, i64 %11
  %13 = load i16, ptr %12, align 2, !tbaa !76
  %14 = icmp ugt i16 %13, 8
  br i1 %14, label %_ZNK11flatbuffers5Table22GetOptionalFieldOffsetEt.exit.i.i, label %_ZNK10reflection6Object9is_structEv.exit.thread

_ZNK11flatbuffers5Table22GetOptionalFieldOffsetEt.exit.i.i: ; preds = %5
  %15 = getelementptr inbounds nuw i8, ptr %12, i64 8
  %16 = load i16, ptr %15, align 2, !tbaa !76
  %.not.i.i = icmp eq i16 %16, 0
  br i1 %.not.i.i, label %_ZNK10reflection6Object9is_structEv.exit.thread, label %_ZNK10reflection6Object9is_structEv.exit

_ZNK10reflection6Object9is_structEv.exit:         ; preds = %_ZNK11flatbuffers5Table22GetOptionalFieldOffsetEt.exit.i.i
  %17 = zext i16 %16 to i64
  %18 = getelementptr inbounds nuw i8, ptr %4, i64 %17
  %19 = load i8, ptr %18, align 1, !tbaa !60
  %.not = icmp eq i8 %19, 0
  br i1 %.not, label %_ZNK10reflection6Object9is_structEv.exit.thread, label %20

20:                                               ; preds = %_ZNK10reflection6Object9is_structEv.exit
  call void @llvm.lifetime.start.p0(i64 8, ptr nonnull %7) #31
  store i64 %1, ptr %7, align 8, !tbaa !36
  %21 = getelementptr inbounds nuw i8, ptr %8, i64 16
  %22 = getelementptr inbounds nuw i8, ptr %8, i64 24
  %23 = getelementptr inbounds nuw i8, ptr %8, i64 8
  store i64 0, ptr %23, align 8
  %24 = tail call noalias noundef nonnull dereferenceable(40) ptr @_Znwm(i64 noundef 40) #37
  store ptr %3, ptr %24, align 16, !tbaa !348
  %.sroa.5.0..sroa_idx = getelementptr inbounds nuw i8, ptr %24, i64 8
  store ptr %6, ptr %.sroa.5.0..sroa_idx, align 8, !tbaa !350
  %.sroa.6.0..sroa_idx = getelementptr inbounds nuw i8, ptr %24, i64 16
  store ptr %0, ptr %.sroa.6.0..sroa_idx, align 16, !tbaa !312
  %.sroa.7.0..sroa_idx = getelementptr inbounds nuw i8, ptr %24, i64 24
  store ptr %7, ptr %.sroa.7.0..sroa_idx, align 8, !tbaa !284
  %.sroa.8.0..sroa_idx = getelementptr inbounds nuw i8, ptr %24, i64 32
  store ptr %2, ptr %.sroa.8.0..sroa_idx, align 16, !tbaa !314
  store ptr %24, ptr %8, align 8, !tbaa !318
  store ptr @"_ZNSt17_Function_handlerIFvPKN10reflection5FieldEEZN11flatbuffers15BinaryAnnotator11BuildStructEmRSt6vectorINS5_12BinaryRegionESaIS8_EENSt7__cxx1112basic_stringIcSt11char_traitsIcESaIcEEEPKNS0_6ObjectEE3$_0E9_M_invokeERKSt9_Any_dataOS3_", ptr %22, align 8, !tbaa !319
  store ptr @"_ZNSt17_Function_handlerIFvPKN10reflection5FieldEEZN11flatbuffers15BinaryAnnotator11BuildStructEmRSt6vectorINS5_12BinaryRegionESaIS8_EENSt7__cxx1112basic_stringIcSt11char_traitsIcESaIcEEEPKNS0_6ObjectEE3$_0E10_M_managerERSt9_Any_dataRKSN_St18_Manager_operation", ptr %21, align 8, !tbaa !322
  invoke void @_ZN11flatbuffers12ForAllFieldsEPKN10reflection6ObjectEbSt8functionIFvPKNS0_5FieldEEE(ptr noundef nonnull %4, i1 noundef zeroext false, ptr noundef nonnull %8)
          to label %25 unwind label %33

25:                                               ; preds = %20
  %26 = load ptr, ptr %21, align 8, !tbaa !322
  %.not.i = icmp eq ptr %26, null
  br i1 %.not.i, label %_ZNSt14_Function_baseD2Ev.exit, label %27

27:                                               ; preds = %25
  %28 = invoke noundef zeroext i1 %26(ptr noundef nonnull align 8 dereferenceable(32) %8, ptr noundef nonnull align 8 dereferenceable(32) %8, i32 noundef 3)
          to label %_ZNSt14_Function_baseD2Ev.exit unwind label %29

29:                                               ; preds = %27
  %30 = landingpad { ptr, i32 }
          catch ptr null
  %31 = extractvalue { ptr, i32 } %30, 0
  call void @__clang_call_terminate(ptr %31) #33
  unreachable

_ZNSt14_Function_baseD2Ev.exit:                   ; preds = %25, %27
  %32 = load i64, ptr %7, align 8, !tbaa !36
  call void @llvm.lifetime.end.p0(i64 8, ptr nonnull %7) #31
  br label %_ZNK10reflection6Object9is_structEv.exit.thread

33:                                               ; preds = %20
  %34 = landingpad { ptr, i32 }
          cleanup
  %35 = load ptr, ptr %21, align 8, !tbaa !322
  %.not.i6 = icmp eq ptr %35, null
  br i1 %.not.i6, label %_ZNSt14_Function_baseD2Ev.exit7, label %36

36:                                               ; preds = %33
  %37 = invoke noundef zeroext i1 %35(ptr noundef nonnull align 8 dereferenceable(32) %8, ptr noundef nonnull align 8 dereferenceable(32) %8, i32 noundef 3)
          to label %_ZNSt14_Function_baseD2Ev.exit7 unwind label %38

38:                                               ; preds = %36
  %39 = landingpad { ptr, i32 }
          catch ptr null
  %40 = extractvalue { ptr, i32 } %39, 0
  call void @__clang_call_terminate(ptr %40) #33
  unreachable

_ZNSt14_Function_baseD2Ev.exit7:                  ; preds = %33, %36
  call void @llvm.lifetime.end.p0(i64 8, ptr nonnull %7) #31
  resume { ptr, i32 } %34

_ZNK10reflection6Object9is_structEv.exit.thread:  ; preds = %5, %_ZNK11flatbuffers5Table22GetOptionalFieldOffsetEt.exit.i.i, %_ZNK10reflection6Object9is_structEv.exit, %_ZNSt14_Function_baseD2Ev.exit
  %.0 = phi i64 [ %32, %_ZNSt14_Function_baseD2Ev.exit ], [ %1, %_ZNK10reflection6Object9is_structEv.exit ], [ %1, %_ZNK11flatbuffers5Table22GetOptionalFieldOffsetEt.exit.i.i ], [ %1, %5 ]
  ret i64 %.0
}